target datalayout = "e-m:e-p270:32:32-p271:32:32-p272:64:64-i64:64-i128:128-f80:128-n8:16:32:64-S128"
target triple = "x86_64-pc-linux-gnu"

%"class.std::__cxx11::basic_string" = type { %"struct.std::__cxx11::basic_string<char>::_Alloc_hider", i64, %union.anon }
%"struct.std::__cxx11::basic_string<char>::_Alloc_hider" = type { ptr }
%union.anon = type { i64, [8 x i8] }
%"class.osgeo::proj::util::BaseObject" = type { ptr, %"class.std::unique_ptr.15" }
%"class.std::unique_ptr.15" = type { %"struct.std::__uniq_ptr_data.16" }
%"struct.std::__uniq_ptr_data.16" = type { %"class.std::__uniq_ptr_impl.17" }
%"class.std::__uniq_ptr_impl.17" = type { %"class.std::tuple.18" }
%"class.std::tuple.18" = type { %"struct.std::_Tuple_impl.19" }
%"struct.std::_Tuple_impl.19" = type { %"struct.std::_Head_base.22" }
%"struct.std::_Head_base.22" = type { ptr }
%"class.std::__shared_count" = type { ptr }
%"struct.osgeo::proj::datum::Datum::Private" = type { %"class.osgeo::proj::util::optional", %"class.std::shared_ptr", %"class.osgeo::proj::util::optional.0", %"class.std::shared_ptr.3" }
%"class.osgeo::proj::util::optional" = type { i8, %"class.std::__cxx11::basic_string" }
%"class.std::shared_ptr" = type { %"class.std::__shared_ptr" }
%"class.std::__shared_ptr" = type { ptr, %"class.std::__shared_count" }
%"class.osgeo::proj::util::optional.0" = type { i8, %"class.osgeo::proj::common::DateTime" }
%"class.osgeo::proj::common::DateTime" = type { %"class.std::unique_ptr" }
%"class.std::unique_ptr" = type { %"struct.std::__uniq_ptr_data" }
%"struct.std::__uniq_ptr_data" = type { %"class.std::__uniq_ptr_impl" }
%"class.std::__uniq_ptr_impl" = type { %"class.std::tuple" }
%"class.std::tuple" = type { %"struct.std::_Tuple_impl" }
%"struct.std::_Tuple_impl" = type { %"struct.std::_Head_base.2" }
%"struct.std::_Head_base.2" = type { ptr }
%"class.std::shared_ptr.3" = type { %"class.std::__shared_ptr.4" }
%"class.std::__shared_ptr.4" = type { ptr, %"class.std::__shared_count" }
%"class.osgeo::proj::datum::Datum" = type { %"class.osgeo::proj::common::ObjectUsage", %"class.osgeo::proj::io::IJSONExportable", %"class.std::unique_ptr.66" }
%"class.osgeo::proj::common::ObjectUsage" = type { %"class.osgeo::proj::common::IdentifiedObject", %"class.std::unique_ptr.58" }
%"class.osgeo::proj::common::IdentifiedObject" = type { %"class.osgeo::proj::util::BaseObject", %"class.osgeo::proj::util::IComparable", %"class.osgeo::proj::io::IWKTExportable", %"class.std::unique_ptr.50" }
%"class.osgeo::proj::util::IComparable" = type { ptr }
%"class.osgeo::proj::io::IWKTExportable" = type { ptr }
%"class.std::unique_ptr.50" = type { %"struct.std::__uniq_ptr_data.51" }
%"struct.std::__uniq_ptr_data.51" = type { %"class.std::__uniq_ptr_impl.52" }
%"class.std::__uniq_ptr_impl.52" = type { %"class.std::tuple.53" }
%"class.std::tuple.53" = type { %"struct.std::_Tuple_impl.54" }
%"struct.std::_Tuple_impl.54" = type { %"struct.std::_Head_base.57" }
%"struct.std::_Head_base.57" = type { ptr }
%"class.std::unique_ptr.58" = type { %"struct.std::__uniq_ptr_data.59" }
%"struct.std::__uniq_ptr_data.59" = type { %"class.std::__uniq_ptr_impl.60" }
%"class.std::__uniq_ptr_impl.60" = type { %"class.std::tuple.61" }
%"class.std::tuple.61" = type { %"struct.std::_Tuple_impl.62" }
%"struct.std::_Tuple_impl.62" = type { %"struct.std::_Head_base.65" }
%"struct.std::_Head_base.65" = type { ptr }
%"class.osgeo::proj::io::IJSONExportable" = type { ptr }
%"class.std::unique_ptr.66" = type { %"struct.std::__uniq_ptr_data.67" }
%"struct.std::__uniq_ptr_data.67" = type { %"class.std::__uniq_ptr_impl.68" }
%"class.std::__uniq_ptr_impl.68" = type { %"class.std::tuple.69" }
%"class.std::tuple.69" = type { %"struct.std::_Tuple_impl.70" }
%"struct.std::_Tuple_impl.70" = type { %"struct.std::_Head_base.73" }
%"struct.std::_Head_base.73" = type { ptr }
%"class.__gnu_cxx::__normal_iterator.336" = type { ptr }
%"struct.std::_Vector_base.109" = type { %"struct.std::_Vector_base<dropbox::oxygen::nn<std::shared_ptr<osgeo::proj::metadata::Identifier>>, std::allocator<dropbox::oxygen::nn<std::shared_ptr<osgeo::proj::metadata::Identifier>>>>::_Vector_impl" }
%"struct.std::_Vector_base<dropbox::oxygen::nn<std::shared_ptr<osgeo::proj::metadata::Identifier>>, std::allocator<dropbox::oxygen::nn<std::shared_ptr<osgeo::proj::metadata::Identifier>>>>::_Vector_impl" = type { %"struct.std::_Vector_base<dropbox::oxygen::nn<std::shared_ptr<osgeo::proj::metadata::Identifier>>, std::allocator<dropbox::oxygen::nn<std::shared_ptr<osgeo::proj::metadata::Identifier>>>>::_Vector_impl_data" }
%"struct.std::_Vector_base<dropbox::oxygen::nn<std::shared_ptr<osgeo::proj::metadata::Identifier>>, std::allocator<dropbox::oxygen::nn<std::shared_ptr<osgeo::proj::metadata::Identifier>>>>::_Vector_impl_data" = type { ptr, ptr, ptr }

@_ZN5osgeo4proj2io12WKTConstants6ANCHORB5cxx11E = external global %"class.std::__cxx11::basic_string", align 8
@_ZN5osgeo4proj2io12WKTConstants6EDATUMB5cxx11E = external global %"class.std::__cxx11::basic_string", align 8
@_ZN5osgeo4proj2io12WKTConstants11LOCAL_DATUMB5cxx11E = external global %"class.std::__cxx11::basic_string", align 8

; Function Attrs: mustprogress nounwind uwtable
define linkonce_odr hidden noundef nonnull align 8 dereferenceable(8) ptr @_ZNSt10_Head_baseILm0EPN5osgeo4proj5datum5Datum7PrivateELb0EE7_M_headERKS6_(ptr noundef nonnull align 8 dereferenceable(8) %0) #1 comdat align 2 {
  %2 = alloca ptr, align 8
  store ptr %0, ptr %2, align 8
  %3 = load ptr, ptr %2, align 8
  %4 = getelementptr inbounds %"struct.std::_Head_base.73", ptr %3, i32 0, i32 0
  ret ptr %4
}

; Function Attrs: mustprogress nounwind uwtable
define linkonce_odr hidden noundef nonnull align 8 dereferenceable(8) ptr @_ZNSt11_Tuple_implILm0EJPN5osgeo4proj5datum5Datum7PrivateESt14default_deleteIS4_EEE7_M_headERKS8_(ptr noundef nonnull align 8 dereferenceable(8) %0) #1 comdat align 2 {
  %2 = alloca ptr, align 8
  store ptr %0, ptr %2, align 8
  %3 = load ptr, ptr %2, align 8
  %4 = call noundef nonnull align 8 dereferenceable(8) ptr @_ZNSt10_Head_baseILm0EPN5osgeo4proj5datum5Datum7PrivateELb0EE7_M_headERKS6_(ptr noundef nonnull align 8 dereferenceable(8) %3) #18
  ret ptr %4
}

; Function Attrs: mustprogress nounwind uwtable
define linkonce_odr hidden noundef nonnull align 8 dereferenceable(8) ptr @_ZSt12__get_helperILm0EPN5osgeo4proj5datum5Datum7PrivateEJSt14default_deleteIS4_EEERKT0_RKSt11_Tuple_implIXT_EJS8_DpT1_EE(ptr noundef nonnull align 8 dereferenceable(8) %0) #1 comdat {
  %2 = alloca ptr, align 8
  store ptr %0, ptr %2, align 8
  %3 = load ptr, ptr %2, align 8
  %4 = call noundef nonnull align 8 dereferenceable(8) ptr @_ZNSt11_Tuple_implILm0EJPN5osgeo4proj5datum5Datum7PrivateESt14default_deleteIS4_EEE7_M_headERKS8_(ptr noundef nonnull align 8 dereferenceable(8) %3) #18
  ret ptr %4
}

; Function Attrs: mustprogress nounwind uwtable
define linkonce_odr hidden noundef nonnull align 8 dereferenceable(8) ptr @_ZSt3getILm0EJPN5osgeo4proj5datum5Datum7PrivateESt14default_deleteIS4_EEERKNSt13tuple_elementIXT_ESt5tupleIJDpT0_EEE4typeERKSC_(ptr noundef nonnull align 8 dereferenceable(8) %0) #1 comdat {
  %2 = alloca ptr, align 8
  store ptr %0, ptr %2, align 8
  %3 = load ptr, ptr %2, align 8
  %4 = call noundef nonnull align 8 dereferenceable(8) ptr @_ZSt12__get_helperILm0EPN5osgeo4proj5datum5Datum7PrivateEJSt14default_deleteIS4_EEERKT0_RKSt11_Tuple_implIXT_EJS8_DpT1_EE(ptr noundef nonnull align 8 dereferenceable(8) %3) #18
  ret ptr %4
}

; Function Attrs: mustprogress nounwind uwtable
define linkonce_odr hidden noundef ptr @_ZNKSt15__uniq_ptr_implIN5osgeo4proj5datum5Datum7PrivateESt14default_deleteIS4_EE6_M_ptrEv(ptr noundef nonnull align 8 dereferenceable(8) %0) #1 comdat align 2 {
  %2 = alloca ptr, align 8
  store ptr %0, ptr %2, align 8
  %3 = load ptr, ptr %2, align 8
  %4 = getelementptr inbounds %"class.std::__uniq_ptr_impl.68", ptr %3, i32 0, i32 0
  %5 = call noundef nonnull align 8 dereferenceable(8) ptr @_ZSt3getILm0EJPN5osgeo4proj5datum5Datum7PrivateESt14default_deleteIS4_EEERKNSt13tuple_elementIXT_ESt5tupleIJDpT0_EEE4typeERKSC_(ptr noundef nonnull align 8 dereferenceable(8) %4) #18
  %6 = load ptr, ptr %5, align 8
  ret ptr %6
}

; Function Attrs: mustprogress nounwind uwtable
define linkonce_odr hidden noundef nonnull align 8 dereferenceable(8) ptr @_ZNK9__gnu_cxx17__normal_iteratorIPKN7dropbox6oxygen2nnISt10shared_ptrIN5osgeo4proj8metadata10IdentifierEEEESt6vectorISA_SaISA_EEE4baseEv(ptr noundef nonnull align 8 dereferenceable(8) %0) #1 comdat align 2 {
  %2 = alloca ptr, align 8
  store ptr %0, ptr %2, align 8
  %3 = load ptr, ptr %2, align 8
  %4 = getelementptr inbounds %"class.__gnu_cxx::__normal_iterator.336", ptr %3, i32 0, i32 0
  ret ptr %4
}

; Function Attrs: mustprogress nounwind uwtable
define linkonce_odr hidden void @_ZN9__gnu_cxx17__normal_iteratorIPKN7dropbox6oxygen2nnISt10shared_ptrIN5osgeo4proj8metadata10IdentifierEEEESt6vectorISA_SaISA_EEEC2ERKSC_(ptr noundef nonnull align 8 dereferenceable(8) %0, ptr noundef nonnull align 8 dereferenceable(8) %1) unnamed_addr #1 comdat align 2 {
  %3 = alloca ptr, align 8
  %4 = alloca ptr, align 8
  store ptr %0, ptr %3, align 8
  store ptr %1, ptr %4, align 8
  %5 = load ptr, ptr %3, align 8
  %6 = getelementptr inbounds %"class.__gnu_cxx::__normal_iterator.336", ptr %5, i32 0, i32 0
  %7 = load ptr, ptr %4, align 8
  %8 = load ptr, ptr %7, align 8
  store ptr %8, ptr %6, align 8
  ret void
}

; Function Attrs: mustprogress nounwind uwtable
define linkonce_odr hidden noundef nonnull align 8 dereferenceable(32) ptr @_ZNK5osgeo4proj4util8optionalINSt7__cxx1112basic_stringIcSt11char_traitsIcESaIcEEEEdeEv(ptr noundef nonnull align 8 dereferenceable(40) %0) #1 comdat align 2 {
  %2 = alloca ptr, align 8
  store ptr %0, ptr %2, align 8
  %3 = load ptr, ptr %2, align 8
  %4 = getelementptr inbounds %"class.osgeo::proj::util::optional", ptr %3, i32 0, i32 1
  ret ptr %4
}

; Function Attrs: mustprogress nounwind uwtable
define linkonce_odr hidden noundef zeroext i1 @_ZNK5osgeo4proj4util8optionalINSt7__cxx1112basic_stringIcSt11char_traitsIcESaIcEEEEcvbEv(ptr noundef nonnull align 8 dereferenceable(40) %0) #1 comdat align 2 {
  %2 = alloca ptr, align 8
  store ptr %0, ptr %2, align 8
  %3 = load ptr, ptr %2, align 8
  %4 = getelementptr inbounds %"class.osgeo::proj::util::optional", ptr %3, i32 0, i32 0
  %5 = load i8, ptr %4, align 8
  %6 = trunc i8 %5 to i1
  ret i1 %6
}

; Function Attrs: mustprogress nounwind uwtable
define linkonce_odr hidden noundef ptr @_ZNKSt10unique_ptrIN5osgeo4proj5datum5Datum7PrivateESt14default_deleteIS4_EE3getEv(ptr noundef nonnull align 8 dereferenceable(8) %0) #1 comdat align 2 {
  %2 = alloca ptr, align 8
  store ptr %0, ptr %2, align 8
  %3 = load ptr, ptr %2, align 8
  %4 = getelementptr inbounds %"class.std::unique_ptr.66", ptr %3, i32 0, i32 0
  %5 = call noundef ptr @_ZNKSt15__uniq_ptr_implIN5osgeo4proj5datum5Datum7PrivateESt14default_deleteIS4_EE6_M_ptrEv(ptr noundef nonnull align 8 dereferenceable(8) %4) #18
  ret ptr %5
}

; Function Attrs: mustprogress nounwind uwtable
define linkonce_odr hidden noundef zeroext i1 @_ZN9__gnu_cxxeqIPKN7dropbox6oxygen2nnISt10shared_ptrIN5osgeo4proj8metadata10IdentifierEEEESt6vectorISA_SaISA_EEEEbRKNS_17__normal_iteratorIT_T0_EESL_(ptr noundef nonnull align 8 dereferenceable(8) %0, ptr noundef nonnull align 8 dereferenceable(8) %1) #1 comdat {
  %3 = alloca ptr, align 8
  %4 = alloca ptr, align 8
  store ptr %0, ptr %3, align 8
  store ptr %1, ptr %4, align 8
  %5 = load ptr, ptr %3, align 8
  %6 = call noundef nonnull align 8 dereferenceable(8) ptr @_ZNK9__gnu_cxx17__normal_iteratorIPKN7dropbox6oxygen2nnISt10shared_ptrIN5osgeo4proj8metadata10IdentifierEEEESt6vectorISA_SaISA_EEE4baseEv(ptr noundef nonnull align 8 dereferenceable(8) %5) #18
  %7 = load ptr, ptr %6, align 8
  %8 = load ptr, ptr %4, align 8
  %9 = call noundef nonnull align 8 dereferenceable(8) ptr @_ZNK9__gnu_cxx17__normal_iteratorIPKN7dropbox6oxygen2nnISt10shared_ptrIN5osgeo4proj8metadata10IdentifierEEEESt6vectorISA_SaISA_EEE4baseEv(ptr noundef nonnull align 8 dereferenceable(8) %8) #18
  %10 = load ptr, ptr %9, align 8
  %11 = icmp eq ptr %7, %10
  ret i1 %11
}

; Function Attrs: mustprogress nounwind uwtable
define linkonce_odr hidden ptr @_ZNKSt6vectorIN7dropbox6oxygen2nnISt10shared_ptrIN5osgeo4proj8metadata10IdentifierEEEESaIS9_EE3endEv(ptr noundef nonnull align 8 dereferenceable(24) %0) #1 comdat align 2 {
  %2 = alloca %"class.__gnu_cxx::__normal_iterator.336", align 8
  %3 = alloca ptr, align 8
  store ptr %0, ptr %3, align 8
  %4 = load ptr, ptr %3, align 8
  %5 = getelementptr inbounds %"struct.std::_Vector_base.109", ptr %4, i32 0, i32 0
  %6 = getelementptr inbounds %"struct.std::_Vector_base<dropbox::oxygen::nn<std::shared_ptr<osgeo::proj::metadata::Identifier>>, std::allocator<dropbox::oxygen::nn<std::shared_ptr<osgeo::proj::metadata::Identifier>>>>::_Vector_impl_data", ptr %5, i32 0, i32 1
  call void @_ZN9__gnu_cxx17__normal_iteratorIPKN7dropbox6oxygen2nnISt10shared_ptrIN5osgeo4proj8metadata10IdentifierEEEESt6vectorISA_SaISA_EEEC2ERKSC_(ptr noundef nonnull align 8 dereferenceable(8) %2, ptr noundef nonnull align 8 dereferenceable(8) %6) #18
  %7 = getelementptr inbounds %"class.__gnu_cxx::__normal_iterator.336", ptr %2, i32 0, i32 0
  %8 = load ptr, ptr %7, align 8
  ret ptr %8
}

; Function Attrs: mustprogress nounwind uwtable
define linkonce_odr hidden ptr @_ZNKSt6vectorIN7dropbox6oxygen2nnISt10shared_ptrIN5osgeo4proj8metadata10IdentifierEEEESaIS9_EE5beginEv(ptr noundef nonnull align 8 dereferenceable(24) %0) #1 comdat align 2 {
  %2 = alloca %"class.__gnu_cxx::__normal_iterator.336", align 8
  %3 = alloca ptr, align 8
  store ptr %0, ptr %3, align 8
  %4 = load ptr, ptr %3, align 8
  %5 = getelementptr inbounds %"struct.std::_Vector_base.109", ptr %4, i32 0, i32 0
  %6 = getelementptr inbounds %"struct.std::_Vector_base<dropbox::oxygen::nn<std::shared_ptr<osgeo::proj::metadata::Identifier>>, std::allocator<dropbox::oxygen::nn<std::shared_ptr<osgeo::proj::metadata::Identifier>>>>::_Vector_impl_data", ptr %5, i32 0, i32 0
  call void @_ZN9__gnu_cxx17__normal_iteratorIPKN7dropbox6oxygen2nnISt10shared_ptrIN5osgeo4proj8metadata10IdentifierEEEESt6vectorISA_SaISA_EEEC2ERKSC_(ptr noundef nonnull align 8 dereferenceable(8) %2, ptr noundef nonnull align 8 dereferenceable(8) %6) #18
  %7 = getelementptr inbounds %"class.__gnu_cxx::__normal_iterator.336", ptr %2, i32 0, i32 0
  %8 = load ptr, ptr %7, align 8
  ret ptr %8
}

; Function Attrs: mustprogress uwtable
define hidden void @_ZNK5osgeo4proj5datum5Datum7Private22exportAnchorDefinitionEPNS0_2io12WKTFormatterE(ptr noundef nonnull align 8 dereferenceable(88) %0, ptr noundef %1) #0 align 2 {
  %3 = alloca ptr, align 8
  %4 = alloca ptr, align 8
  store ptr %0, ptr %3, align 8
  store ptr %1, ptr %4, align 8
  %5 = load ptr, ptr %3, align 8
  %6 = getelementptr inbounds %"struct.osgeo::proj::datum::Datum::Private", ptr %5, i32 0, i32 0
  %7 = call noundef zeroext i1 @_ZNK5osgeo4proj4util8optionalINSt7__cxx1112basic_stringIcSt11char_traitsIcESaIcEEEEcvbEv(ptr noundef nonnull align 8 dereferenceable(40) %6) #18
  br i1 %7, label %8, label %14

8:                                                ; preds = %2
  %9 = load ptr, ptr %4, align 8
  call void @_ZN5osgeo4proj2io12WKTFormatter9startNodeERKNSt7__cxx1112basic_stringIcSt11char_traitsIcESaIcEEEb(ptr noundef nonnull align 8 dereferenceable(8) %9, ptr noundef nonnull align 8 dereferenceable(32) @_ZN5osgeo4proj2io12WKTConstants6ANCHORB5cxx11E, i1 noundef zeroext false)
  %10 = load ptr, ptr %4, align 8
  %11 = getelementptr inbounds %"struct.osgeo::proj::datum::Datum::Private", ptr %5, i32 0, i32 0
  %12 = call noundef nonnull align 8 dereferenceable(32) ptr @_ZNK5osgeo4proj4util8optionalINSt7__cxx1112basic_stringIcSt11char_traitsIcESaIcEEEEdeEv(ptr noundef nonnull align 8 dereferenceable(40) %11)
  call void @_ZN5osgeo4proj2io12WKTFormatter15addQuotedStringERKNSt7__cxx1112basic_stringIcSt11char_traitsIcESaIcEEE(ptr noundef nonnull align 8 dereferenceable(8) %10, ptr noundef nonnull align 8 dereferenceable(32) %12)
  %13 = load ptr, ptr %4, align 8
  call void @_ZN5osgeo4proj2io12WKTFormatter7endNodeEv(ptr noundef nonnull align 8 dereferenceable(8) %13)
  br label %14

14:                                               ; preds = %8, %2
  ret void
}

; Function Attrs: mustprogress nounwind uwtable
define linkonce_odr hidden noundef ptr @_ZNK5osgeo4proj5datum5Datum10getPrivateEv(ptr noundef nonnull align 8 dereferenceable(64) %0) #1 comdat align 2 {
  %2 = alloca ptr, align 8
  store ptr %0, ptr %2, align 8
  %3 = load ptr, ptr %2, align 8
  %4 = getelementptr inbounds %"class.osgeo::proj::datum::Datum", ptr %3, i32 0, i32 2
  %5 = call noundef ptr @_ZNKSt10unique_ptrIN5osgeo4proj5datum5Datum7PrivateESt14default_deleteIS4_EE3getEv(ptr noundef nonnull align 8 dereferenceable(8) %4) #18
  ret ptr %5
}

; Function Attrs: mustprogress nounwind uwtable
define linkonce_odr hidden noundef zeroext i1 @_ZNKSt6vectorIN7dropbox6oxygen2nnISt10shared_ptrIN5osgeo4proj8metadata10IdentifierEEEESaIS9_EE5emptyEv(ptr noundef nonnull align 8 dereferenceable(24) %0) #1 comdat align 2 {
  %2 = alloca ptr, align 8
  %3 = alloca %"class.__gnu_cxx::__normal_iterator.336", align 8
  %4 = alloca %"class.__gnu_cxx::__normal_iterator.336", align 8
  store ptr %0, ptr %2, align 8
  %5 = load ptr, ptr %2, align 8
  %6 = call ptr @_ZNKSt6vectorIN7dropbox6oxygen2nnISt10shared_ptrIN5osgeo4proj8metadata10IdentifierEEEESaIS9_EE5beginEv(ptr noundef nonnull align 8 dereferenceable(24) %5) #18
  %7 = getelementptr inbounds %"class.__gnu_cxx::__normal_iterator.336", ptr %3, i32 0, i32 0
  store ptr %6, ptr %7, align 8
  %8 = call ptr @_ZNKSt6vectorIN7dropbox6oxygen2nnISt10shared_ptrIN5osgeo4proj8metadata10IdentifierEEEESaIS9_EE3endEv(ptr noundef nonnull align 8 dereferenceable(24) %5) #18
  %9 = getelementptr inbounds %"class.__gnu_cxx::__normal_iterator.336", ptr %4, i32 0, i32 0
  store ptr %8, ptr %9, align 8
  %10 = call noundef zeroext i1 @_ZN9__gnu_cxxeqIPKN7dropbox6oxygen2nnISt10shared_ptrIN5osgeo4proj8metadata10IdentifierEEEESt6vectorISA_SaISA_EEEEbRKNS_17__normal_iteratorIT_T0_EESL_(ptr noundef nonnull align 8 dereferenceable(8) %3, ptr noundef nonnull align 8 dereferenceable(8) %4) #18
  ret i1 %10
}

; Function Attrs: mustprogress uwtable
define hidden void @_ZNK5osgeo4proj5datum16EngineeringDatum12_exportToWKTEPNS0_2io12WKTFormatterE(ptr noundef nonnull align 8 dereferenceable(72) %0, ptr noundef %1) unnamed_addr #0 align 2 {
  %3 = alloca ptr, align 8
  %4 = alloca ptr, align 8
  %5 = alloca i8, align 1
  store ptr %0, ptr %3, align 8
  store ptr %1, ptr %4, align 8
  %6 = load ptr, ptr %3, align 8
  %7 = load ptr, ptr %4, align 8
  %8 = call noundef i32 @_ZNK5osgeo4proj2io12WKTFormatter7versionEv(ptr noundef nonnull align 8 dereferenceable(8) %7)
  %9 = icmp eq i32 %8, 1
  %10 = zext i1 %9 to i8
  store i8 %10, ptr %5, align 1
  %11 = load ptr, ptr %4, align 8
  %12 = load i8, ptr %5, align 1
  %13 = trunc i8 %12 to i1
  br i1 %13, label %14, label %15

14:                                               ; preds = %2
  br label %16

15:                                               ; preds = %2
  br label %16

16:                                               ; preds = %15, %14
  %17 = phi ptr [ @_ZN5osgeo4proj2io12WKTConstants6EDATUMB5cxx11E, %14 ], [ @_ZN5osgeo4proj2io12WKTConstants11LOCAL_DATUMB5cxx11E, %15 ]
  %18 = call noundef nonnull align 8 dereferenceable(24) ptr @_ZNK5osgeo4proj6common16IdentifiedObject11identifiersEv(ptr noundef nonnull align 8 dereferenceable(40) %6) #7
  %19 = call noundef zeroext i1 @_ZNKSt6vectorIN7dropbox6oxygen2nnISt10shared_ptrIN5osgeo4proj8metadata10IdentifierEEEESaIS9_EE5emptyEv(ptr noundef nonnull align 8 dereferenceable(24) %18) #18
  %20 = xor i1 %19, true
  call void @_ZN5osgeo4proj2io12WKTFormatter9startNodeERKNSt7__cxx1112basic_stringIcSt11char_traitsIcESaIcEEEb(ptr noundef nonnull align 8 dereferenceable(8) %11, ptr noundef nonnull align 8 dereferenceable(32) %17, i1 noundef zeroext %20)
  %21 = load ptr, ptr %4, align 8
  %22 = call noundef nonnull align 8 dereferenceable(32) ptr @_ZNK5osgeo4proj6common16IdentifiedObject7nameStrB5cxx11Ev(ptr noundef nonnull align 8 dereferenceable(40) %6) #7
  call void @_ZN5osgeo4proj2io12WKTFormatter15addQuotedStringERKNSt7__cxx1112basic_stringIcSt11char_traitsIcESaIcEEE(ptr noundef nonnull align 8 dereferenceable(8) %21, ptr noundef nonnull align 8 dereferenceable(32) %22)
  %23 = load i8, ptr %5, align 1
  %24 = trunc i8 %23 to i1
  br i1 %24, label %25, label %28

25:                                               ; preds = %16
  %26 = call noundef ptr @_ZNK5osgeo4proj5datum5Datum10getPrivateEv(ptr noundef nonnull align 8 dereferenceable(64) %6) #18
  %27 = load ptr, ptr %4, align 8
  call void @_ZNK5osgeo4proj5datum5Datum7Private22exportAnchorDefinitionEPNS0_2io12WKTFormatterE(ptr noundef nonnull align 8 dereferenceable(88) %26, ptr noundef %27)
  br label %30

28:                                               ; preds = %16
  %29 = load ptr, ptr %4, align 8
  call void @_ZN5osgeo4proj2io12WKTFormatter3addEi(ptr noundef nonnull align 8 dereferenceable(8) %29, i32 noundef 32767)
  br label %30

30:                                               ; preds = %28, %25
  %31 = load ptr, ptr %4, align 8
  call void @_ZN5osgeo4proj2io12WKTFormatter7endNodeEv(ptr noundef nonnull align 8 dereferenceable(8) %31)
  ret void
}