; Function Attrs: mustprogress uwtable
define hidden void @_ZNK5osgeo4proj5datum16EngineeringDatum12_exportToWKTEPNS0_2io12WKTFormatterE(ptr noundef nonnull align 8 dereferenceable(72) %0, ptr noundef nonnull %1) unnamed_addr #0 align 2 {
  %3 = tail call noundef i32 @_ZNK5osgeo4proj2io12WKTFormatter7versionEv(ptr noundef nonnull align 8 dereferenceable(8) %1)
  %4 = icmp eq i32 %3, 1
  %_ZN5osgeo4proj2io12WKTConstants6EDATUMB5cxx11E._ZN5osgeo4proj2io12WKTConstants11LOCAL_DATUMB5cxx11E = select i1 %4, ptr @_ZN5osgeo4proj2io12WKTConstants6EDATUMB5cxx11E, ptr @_ZN5osgeo4proj2io12WKTConstants11LOCAL_DATUMB5cxx11E
  %5 = tail call noundef nonnull align 8 dereferenceable(24) ptr @_ZNK5osgeo4proj6common16IdentifiedObject11identifiersEv(ptr noundef nonnull align 8 dereferenceable(40) %0) #25
  %6 = load ptr, ptr %5, align 8
  %7 = getelementptr inbounds i8, ptr %5, i64 8
  %8 = load ptr, ptr %7, align 8
  %9 = icmp ne ptr %6, %8
  tail call void @_ZN5osgeo4proj2io12WKTFormatter9startNodeERKNSt7__cxx1112basic_stringIcSt11char_traitsIcESaIcEEEb(ptr noundef nonnull align 8 dereferenceable(8) %1, ptr noundef nonnull align 8 dereferenceable(32) %_ZN5osgeo4proj2io12WKTConstants6EDATUMB5cxx11E._ZN5osgeo4proj2io12WKTConstants11LOCAL_DATUMB5cxx11E, i1 noundef zeroext %9)
  %10 = tail call noundef nonnull align 8 dereferenceable(32) ptr @_ZNK5osgeo4proj6common16IdentifiedObject7nameStrB5cxx11Ev(ptr noundef nonnull align 8 dereferenceable(40) %0) #25
  tail call void @_ZN5osgeo4proj2io12WKTFormatter15addQuotedStringERKNSt7__cxx1112basic_stringIcSt11char_traitsIcESaIcEEE(ptr noundef nonnull align 8 dereferenceable(8) %1, ptr noundef nonnull align 8 dereferenceable(32) %10)
  br i1 %4, label %11, label %18

11:                                               ; preds = %2
  %12 = getelementptr inbounds i8, ptr %0, i64 56
  %13 = load ptr, ptr %12, align 8
  %14 = load i8, ptr %13, align 8
  %15 = trunc i8 %14 to i1
  br i1 %15, label %16, label %_ZNK5osgeo4proj5datum5Datum7Private22exportAnchorDefinitionEPNS0_2io12WKTFormatterE.exit

16:                                               ; preds = %11
  tail call void @_ZN5osgeo4proj2io12WKTFormatter9startNodeERKNSt7__cxx1112basic_stringIcSt11char_traitsIcESaIcEEEb(ptr noundef nonnull align 8 dereferenceable(8) %1, ptr noundef nonnull align 8 dereferenceable(32) @_ZN5osgeo4proj2io12WKTConstants6ANCHORB5cxx11E, i1 noundef zeroext false)
  %17 = getelementptr inbounds i8, ptr %13, i64 8
  tail call void @_ZN5osgeo4proj2io12WKTFormatter15addQuotedStringERKNSt7__cxx1112basic_stringIcSt11char_traitsIcESaIcEEE(ptr noundef nonnull align 8 dereferenceable(8) %1, ptr noundef nonnull align 8 dereferenceable(32) %17)
  tail call void @_ZN5osgeo4proj2io12WKTFormatter7endNodeEv(ptr noundef nonnull align 8 dereferenceable(8) %1)
  br label %_ZNK5osgeo4proj5datum5Datum7Private22exportAnchorDefinitionEPNS0_2io12WKTFormatterE.exit

18:                                               ; preds = %2
  tail call void @_ZN5osgeo4proj2io12WKTFormatter3addEi(ptr noundef nonnull align 8 dereferenceable(8) %1, i32 noundef 32767)
  br label %_ZNK5osgeo4proj5datum5Datum7Private22exportAnchorDefinitionEPNS0_2io12WKTFormatterE.exit

_ZNK5osgeo4proj5datum5Datum7Private22exportAnchorDefinitionEPNS0_2io12WKTFormatterE.exit: ; preds = %16, %11, %18
  tail call void @_ZN5osgeo4proj2io12WKTFormatter7endNodeEv(ptr noundef nonnull align 8 dereferenceable(8) %1)
  ret void
}